target datalayout = "e-m:e-p270:32:32-p271:32:32-p272:64:64-i64:64-i128:128-f80:128-n8:16:32:64-S128"
target triple = "x86_64-pc-linux-gnu"

%class.symbol = type { ptr }
%"class.datalog::tab" = type { %"class.datalog::engine_base", ptr }
%"class.datalog::engine_base" = type { ptr, ptr, %"class.std::__cxx11::basic_string" }
%"class.std::__cxx11::basic_string" = type { %"struct.std::__cxx11::basic_string<char>::_Alloc_hider", i64, %union.anon }
%"struct.std::__cxx11::basic_string<char>::_Alloc_hider" = type { ptr }
%union.anon = type { i64, [8 x i8] }
%class.var_subst = type { %class.beta_reducer, i8, [7 x i8] }
%class.beta_reducer = type <{ %class.rewriter_tpl, [8 x i8] }>
%class.rewriter_tpl = type { %class.rewriter_core, ptr, i32, %class.ptr_vector.2, %class.var_shifter, %class.inv_var_shifter, %class.obj_ref, %class.obj_ref.11, %class.obj_ref.11, %class.svector.12 }
%class.rewriter_core = type { ptr, ptr, i8, i8, %class.ptr_vector, ptr, %class.svector, %class.ref_vector, %class.ptr_vector, ptr, %class.ref_vector.4, %class.obj_hashtable, ptr, i32, %class.svector.9 }
%class.svector = type { %class.vector.1 }
%class.vector.1 = type { ptr }
%class.ptr_vector = type { %class.vector }
%class.vector = type { ptr }
%class.ref_vector.4 = type { %class.ref_vector_core.5 }
%class.ref_vector_core.5 = type { %class.ref_manager_wrapper.6, %class.ptr_vector.7 }
%class.ref_manager_wrapper.6 = type { ptr }
%class.ptr_vector.7 = type { %class.vector.8 }
%class.vector.8 = type { ptr }
%class.obj_hashtable = type { %class.core_hashtable.base, [4 x i8] }
%class.core_hashtable.base = type <{ ptr, i32, i32, i32 }>
%class.svector.9 = type { %class.vector.10 }
%class.vector.10 = type { ptr }
%class.ptr_vector.2 = type { %class.vector.3 }
%class.vector.3 = type { ptr }
%class.var_shifter = type <{ %class.var_shifter_core, i32, i32, i32, [4 x i8] }>
%class.var_shifter_core = type { %class.rewriter_core }
%class.inv_var_shifter = type <{ %class.var_shifter_core, i32, [4 x i8] }>
%class.obj_ref.11 = type { ptr, ptr }
%class.svector.12 = type { %class.vector.13 }
%class.vector.13 = type { ptr }
%class.uint_set = type { %class.svector.12 }
%class.qe_lite = type { ptr }
%"class.datatype::util" = type { ptr, i32, ptr }
%class.ref_vector = type { %class.ref_vector_core }
%class.ref_vector_core = type { %class.ref_manager_wrapper, %class.ptr_vector.2 }
%class.ref_manager_wrapper = type { ptr }
%class.obj_ref = type { ptr, ptr }
%"class.datalog::tab::imp" = type { ptr, ptr, ptr, %"class.tb::index", %"class.tb::selection", %struct.smt_params, %"class.smt::kernel", %"class.tb::unifier", %"class.tb::rules", %class.vector.134, i32, i32, i32, %"struct.datalog::tab::imp::stats", %class.uint_set }
%"class.tb::index" = type { ptr, %class.ref_vector.4, %class.obj_ref.11, %class.obj_ref, %class.ref_vector, %class.ref.133, %class.vector.134, %"class.tb::matcher", %class.ref_vector, %class.obj_hashtable, %class.substitution, %class.qe_lite, %class.uint_set, %class.bool_rewriter, %struct.smt_params, %"class.smt::kernel" }
%class.ref.133 = type { ptr }
%"class.tb::matcher" = type { ptr, %class.svector.135, %"class.datatype::util" }
%class.svector.135 = type { %class.vector.136 }
%class.vector.136 = type { ptr }
%class.substitution = type <{ ptr, %class.var_offset_map, %class.svector.139, %class.ref_vector, %class.svector.12, %class.svector.141, %class.expr_offset_map, %class.ref_vector, %class.expr_offset_map.144, i32, [4 x i8] }>
%class.var_offset_map = type <{ %class.svector.137, i32, i32, i32, [4 x i8] }>
%class.svector.137 = type { %class.vector.138 }
%class.vector.138 = type { ptr }
%class.svector.139 = type { %class.vector.140 }
%class.vector.140 = type { ptr }
%class.svector.141 = type { %class.vector.142 }
%class.vector.142 = type { ptr }
%class.expr_offset_map = type <{ %class.vector.143, i32, [4 x i8] }>
%class.vector.143 = type { ptr }
%class.expr_offset_map.144 = type <{ %class.vector.145, i32, [4 x i8] }>
%class.vector.145 = type { ptr }
%class.bool_rewriter = type { ptr, i8, i8, i8, i8, i8, i8, i32, i8, i32, i32, i8, %class.ptr_vector.2, %class.ptr_vector.2, %class.svector.12, %class.svector.12 }
%"class.tb::selection" = type { ptr, %"class.datatype::util", %class.obj_map.147, %class.svector.152, %class.svector.152, i32, [4 x i8], %class.obj_map.154, %class.ref_vector, double, i32, i32 }
%class.obj_map.147 = type { %class.core_hashtable.148 }
%class.core_hashtable.148 = type <{ ptr, i32, i32, i32, [4 x i8] }>
%class.svector.152 = type { %class.vector.153 }
%class.vector.153 = type { ptr }
%class.obj_map.154 = type { %class.core_hashtable.155 }
%class.core_hashtable.155 = type <{ ptr, i32, i32, i32, [4 x i8] }>
%struct.smt_params = type { %struct.preprocessor_params.base, %struct.dyn_ack_params, %struct.qi_params, %struct.theory_arith_params.base, i8, %struct.theory_array_params.base, %struct.theory_bv_params, [4 x i8], %struct.theory_str_params.base, %struct.theory_seq_params, %struct.theory_pb_params.base, %struct.theory_datatype_params, i8, i8, i8, i8, i8, i8, i32, i8, i32, double, double, i32, i32, i32, i32, i32, i8, i32, i32, i32, i32, i32, i32, i8, i32, i8, i8, i8, i8, i8, %class.symbol, i8, i8, i32, i32, i8, i8, i8, i8, i32, i8, i32, i32, double, i8, double, double, i32, i8, i32, i32, double, i32, i32, i32, i32, i32, double, i8, i8, i8, i8, %class.symbol, i8, i8, i8, i8, i8, i8, i32, i8, i8, i8, i8, i8, i8, i8, i8, i8, double, i8, %class.symbol }
%struct.preprocessor_params.base = type <{ %struct.pattern_inference_params.base, %struct.bit_blaster_params, i32, i32, i8, i8, i8, i8, i8, i8, i8, i8, i8, i8, i8, i8, i8, i8, i8, i8, i8, i8, i8 }>
%struct.pattern_inference_params.base = type <{ i8, [3 x i8], i32, i8, i8, [2 x i8], i32, i8, [3 x i8], i32, i32, i8, [3 x i8], i32, i8, i8 }>
%struct.bit_blaster_params = type { i8, i8 }
%struct.dyn_ack_params = type { i32, i8, double, i32, i32, double }
%struct.qi_params = type { %"class.std::__cxx11::basic_string", %"class.std::__cxx11::basic_string", double, double, i32, i32, i8, i32, i32, i8, i8, i32, i8, i8, i8, i8, i32, i32, i32, i8, i32, ptr }
%struct.theory_arith_params.base = type <{ i8, i8, [2 x i8], i32, i8, [3 x i8], i32, i8, [3 x i8], i32, i8, i8, [2 x i8], i32, i32, i8, i8, [2 x i8], i32, i32, i8, [3 x i8], i32, i32, i8, [3 x i8], double, double, i8, [3 x i8], i32, i8, i8, i8, i8, i8, [3 x i8], i32, i8, i8, [2 x i8], i32, i8, [3 x i8], i32, i8, i8, i8, i8, i8, i8, [2 x i8], i32, i8, i8, [2 x i8], i32, i8, [3 x i8], i32, i8, i8, i8 }>
%struct.theory_array_params.base = type <{ i8, i8, [2 x i8], i32, i8, i8, [2 x i8], i32, i8, i8, i8, i8, i32, i8 }>
%struct.theory_bv_params = type { i32, i8, i8, i8, i8, i32, i8, i8, i8, i8, i32 }
%struct.theory_str_params.base = type <{ i8, i8, i8, i8, i8, i8, i8, i8, double, i32, i32, i32, i32, i32, i8, i8 }>
%struct.theory_seq_params = type { i8, i8, i32, i32 }
%struct.theory_pb_params.base = type <{ i32, i8 }>
%struct.theory_datatype_params = type { i32 }
%"class.smt::kernel" = type { ptr }
%"class.tb::unifier" = type { ptr, %class.unifier, %class.substitution, %class.var_subst, %class.ref_vector, %class.ref_vector, %class.ref_vector }
%class.unifier = type <{ ptr, ptr, %class.svector.159, %class.expr_offset_map.161, %class.expr_offset_map.164, i8, [7 x i8] }>
%class.svector.159 = type { %class.vector.160 }
%class.vector.160 = type { ptr }
%class.expr_offset_map.161 = type <{ %class.vector.162, i32, [4 x i8] }>
%class.vector.162 = type { ptr }
%class.expr_offset_map.164 = type <{ %class.vector.165, i32, [4 x i8] }>
%class.vector.165 = type { ptr }
%"class.tb::rules" = type { %class.vector.134, %class.obj_map.167 }
%class.obj_map.167 = type { %class.core_hashtable.168 }
%class.core_hashtable.168 = type <{ ptr, i32, i32, i32, [4 x i8] }>
%class.vector.134 = type { ptr }
%"struct.datalog::tab::imp::stats" = type { i32, i32, i32 }

@.str.48 = private unnamed_addr constant [15 x i8] c"tab.num_unfold\00", align 1
@.str.49 = private unnamed_addr constant [20 x i8] c"tab.num_unfold_fail\00", align 1
@.str.50 = private unnamed_addr constant [17 x i8] c"tab.num_subsumed\00", align 1

; Function Attrs: mustprogress uwtable
define linkonce_odr hidden void @_ZNK7datalog3tab3imp18collect_statisticsER10statistics(ptr noundef nonnull align 8 dereferenceable(3048) %0, ptr noundef nonnull align 8 dereferenceable(16) %1) #4 comdat align 2 {
  %3 = alloca ptr, align 8
  %4 = alloca ptr, align 8
  store ptr %0, ptr %3, align 8, !tbaa !223
  store ptr %1, ptr %4, align 8, !tbaa !322
  %5 = load ptr, ptr %3, align 8
  %6 = load ptr, ptr %4, align 8, !tbaa !322
  %7 = getelementptr inbounds nuw %"class.datalog::tab::imp", ptr %5, i32 0, i32 13
  %8 = getelementptr inbounds nuw %"struct.datalog::tab::imp::stats", ptr %7, i32 0, i32 0
  %9 = load i32, ptr %8, align 4, !tbaa !324
  call void @_ZN10statistics6updateEPKcj(ptr noundef nonnull align 8 dereferenceable(16) %6, ptr noundef @.str.48, i32 noundef %9)
  %10 = load ptr, ptr %4, align 8, !tbaa !322
  %11 = getelementptr inbounds nuw %"class.datalog::tab::imp", ptr %5, i32 0, i32 13
  %12 = getelementptr inbounds nuw %"struct.datalog::tab::imp::stats", ptr %11, i32 0, i32 1
  %13 = load i32, ptr %12, align 4, !tbaa !325
  call void @_ZN10statistics6updateEPKcj(ptr noundef nonnull align 8 dereferenceable(16) %10, ptr noundef @.str.49, i32 noundef %13)
  %14 = load ptr, ptr %4, align 8, !tbaa !322
  %15 = getelementptr inbounds nuw %"class.datalog::tab::imp", ptr %5, i32 0, i32 13
  %16 = getelementptr inbounds nuw %"struct.datalog::tab::imp::stats", ptr %15, i32 0, i32 2
  %17 = load i32, ptr %16, align 4, !tbaa !326
  call void @_ZN10statistics6updateEPKcj(ptr noundef nonnull align 8 dereferenceable(16) %14, ptr noundef @.str.50, i32 noundef %17)
  ret void
}

; Function Attrs: mustprogress uwtable
define hidden void @_ZNK7datalog3tab18collect_statisticsER10statistics(ptr noundef nonnull align 8 dereferenceable(56) %0, ptr noundef nonnull align 8 dereferenceable(16) %1) unnamed_addr #4 align 2 {
  %3 = alloca ptr, align 8
  %4 = alloca ptr, align 8
  store ptr %0, ptr %3, align 8, !tbaa !14
  store ptr %1, ptr %4, align 8, !tbaa !322
  %5 = load ptr, ptr %3, align 8
  %6 = getelementptr inbounds nuw %"class.datalog::tab", ptr %5, i32 0, i32 1
  %7 = load ptr, ptr %6, align 8, !tbaa !18
  %8 = load ptr, ptr %4, align 8, !tbaa !322
  call void @_ZNK7datalog3tab3imp18collect_statisticsER10statistics(ptr noundef nonnull align 8 dereferenceable(3048) %7, ptr noundef nonnull align 8 dereferenceable(16) %8)
  ret void
}