; Function Attrs: mustprogress uwtable
define hidden void @_ZNK7datalog3tab18collect_statisticsER10statistics(ptr noundef nonnull readonly align 8 captures(none) dereferenceable(56) %0, ptr noundef nonnull align 8 dereferenceable(16) %1) unnamed_addr #3 align 2 {
  %3 = getelementptr inbounds nuw i8, ptr %0, i64 48
  %4 = load ptr, ptr %3, align 8, !tbaa !213
  %5 = getelementptr inbounds nuw i8, ptr %4, i64 3028
  %6 = load i32, ptr %5, align 4, !tbaa !413
  tail call void @_ZN10statistics6updateEPKcj(ptr noundef nonnull align 8 dereferenceable(16) %1, ptr noundef nonnull @.str.48, i32 noundef %6)
  %7 = getelementptr inbounds nuw i8, ptr %4, i64 3032
  %8 = load i32, ptr %7, align 4, !tbaa !414
  tail call void @_ZN10statistics6updateEPKcj(ptr noundef nonnull align 8 dereferenceable(16) %1, ptr noundef nonnull @.str.49, i32 noundef %8)
  %9 = getelementptr inbounds nuw i8, ptr %4, i64 3036
  %10 = load i32, ptr %9, align 4, !tbaa !415
  tail call void @_ZN10statistics6updateEPKcj(ptr noundef nonnull align 8 dereferenceable(16) %1, ptr noundef nonnull @.str.50, i32 noundef %10)
  ret void
}